target datalayout = "e-m:e-p270:32:32-p271:32:32-p272:64:64-i64:64-i128:128-f80:128-n8:16:32:64-S128"
target triple = "x86_64-pc-linux-gnu"

%class.StringList = type { %class.Array, i64, i64, [16 x i64], i64 }
%class.Array = type { ptr, i64, i64, i64 }

; Function Attrs: mustprogress nounwind uwtable
define linkonce_odr noundef nonnull align 4 dereferenceable(4) ptr @_ZNK5ArrayIwEixEm(ptr noundef nonnull align 8 dereferenceable(32) %0, i64 noundef %1) #1 comdat align 2 {
  %3 = alloca ptr, align 8
  %4 = alloca i64, align 8
  store ptr %0, ptr %3, align 8
  store i64 %1, ptr %4, align 8
  %5 = load ptr, ptr %3, align 8
  %6 = getelementptr inbounds %class.Array, ptr %5, i32 0, i32 0
  %7 = load ptr, ptr %6, align 8
  %8 = load i64, ptr %4, align 8
  %9 = getelementptr inbounds i32, ptr %7, i64 %8
  ret ptr %9
}

; Function Attrs: mustprogress nounwind uwtable
define linkonce_odr noundef i64 @_ZN5ArrayIwE4SizeEv(ptr noundef nonnull align 8 dereferenceable(32) %0) #1 comdat align 2 {
  %2 = alloca ptr, align 8
  store ptr %0, ptr %2, align 8
  %3 = load ptr, ptr %2, align 8
  %4 = getelementptr inbounds %class.Array, ptr %3, i32 0, i32 1
  %5 = load i64, ptr %4, align 8
  ret i64 %5
}

; Function Attrs: mustprogress uwtable
define noundef zeroext i1 @_ZN10StringList9GetStringEPPw(ptr noundef nonnull align 8 dereferenceable(184) %0, ptr noundef %1) #0 align 2 {
  %3 = alloca i1, align 1
  %4 = alloca ptr, align 8
  %5 = alloca ptr, align 8
  %6 = alloca ptr, align 8
  store ptr %0, ptr %4, align 8
  store ptr %1, ptr %5, align 8
  %7 = load ptr, ptr %4, align 8
  %8 = getelementptr inbounds %class.StringList, ptr %7, i32 0, i32 1
  %9 = load i64, ptr %8, align 8
  %10 = getelementptr inbounds %class.StringList, ptr %7, i32 0, i32 0
  %11 = call noundef i64 @_ZN5ArrayIwE4SizeEv(ptr noundef nonnull align 8 dereferenceable(32) %10)
  %12 = icmp uge i64 %9, %11
  br i1 %12, label %13, label %19

13:                                               ; preds = %2
  %14 = load ptr, ptr %5, align 8
  %15 = icmp ne ptr %14, null
  br i1 %15, label %16, label %18

16:                                               ; preds = %13
  %17 = load ptr, ptr %5, align 8
  store ptr null, ptr %17, align 8
  br label %18

18:                                               ; preds = %16, %13
  store i1 false, ptr %3, align 1
  br label %36

19:                                               ; preds = %2
  %20 = getelementptr inbounds %class.StringList, ptr %7, i32 0, i32 0
  %21 = getelementptr inbounds %class.StringList, ptr %7, i32 0, i32 1
  %22 = load i64, ptr %21, align 8
  %23 = call noundef nonnull align 4 dereferenceable(4) ptr @_ZNK5ArrayIwEixEm(ptr noundef nonnull align 8 dereferenceable(32) %20, i64 noundef %22)
  store ptr %23, ptr %6, align 8
  %24 = load ptr, ptr %6, align 8
  %25 = call i64 @wcslen(ptr noundef %24) #7
  %26 = add i64 %25, 1
  %27 = getelementptr inbounds %class.StringList, ptr %7, i32 0, i32 1
  %28 = load i64, ptr %27, align 8
  %29 = add i64 %28, %26
  store i64 %29, ptr %27, align 8
  %30 = load ptr, ptr %5, align 8
  %31 = icmp ne ptr %30, null
  br i1 %31, label %32, label %35

32:                                               ; preds = %19
  %33 = load ptr, ptr %6, align 8
  %34 = load ptr, ptr %5, align 8
  store ptr %33, ptr %34, align 8
  br label %35

35:                                               ; preds = %32, %19
  store i1 true, ptr %3, align 1
  br label %36

36:                                               ; preds = %35, %18
  %37 = load i1, ptr %3, align 1
  ret i1 %37
}