; Function Attrs: mustprogress nofree nounwind willreturn memory(read, argmem: readwrite, inaccessiblemem: none) uwtable
define noundef zeroext i1 @_ZN10StringList9GetStringEPPw(ptr nocapture noundef nonnull align 8 dereferenceable(184) %0, ptr noundef writeonly %1) local_unnamed_addr #6 align 2 {
  %3 = getelementptr inbounds i8, ptr %0, i64 32
  %4 = load i64, ptr %3, align 8
  %5 = getelementptr inbounds i8, ptr %0, i64 8
  %6 = load i64, ptr %5, align 8
  %.not = icmp ult i64 %4, %6
  br i1 %.not, label %8, label %7

7:                                                ; preds = %2
  %.not10 = icmp eq ptr %1, null
  br i1 %.not10, label %14, label %.sink.split

8:                                                ; preds = %2
  %9 = load ptr, ptr %0, align 8
  %10 = getelementptr inbounds i32, ptr %9, i64 %4
  %11 = tail call i64 @wcslen(ptr noundef nonnull %10) #15
  %12 = add nuw i64 %4, 1
  %13 = add i64 %12, %11
  store i64 %13, ptr %3, align 8
  %.not9 = icmp eq ptr %1, null
  br i1 %.not9, label %14, label %.sink.split

.sink.split:                                      ; preds = %8, %7
  %.sink = phi ptr [ null, %7 ], [ %10, %8 ]
  store ptr %.sink, ptr %1, align 8
  br label %14

14:                                               ; preds = %.sink.split, %8, %7
  ret i1 %.not
}